target datalayout = "e-m:e-p270:32:32-p271:32:32-p272:64:64-i64:64-i128:128-f80:128-n8:16:32:64-S128"
target triple = "x86_64-pc-linux-gnu"

%class.StackCountVisitor = type <{ %class.VNVisitorConst, %class.VNUser2InUse, [7 x i8], i64, i8, i8, i8, [5 x i8] }>
%class.VNVisitorConst = type { ptr }
%class.VNUser2InUse = type { i8 }

@_ZTV14VNVisitorConst = external unnamed_addr constant { [464 x ptr] }, align 8
@_ZN12VNUser2InUse12s_userCntGblE = external global i32, align 4
@_ZN12VNUser2InUse10s_userBusyE = external global i8, align 1

; Function Attrs: mustprogress nounwind uwtable
define linkonce_odr dso_local void @_ZN14VNVisitorConstD2Ev(ptr noundef nonnull align 8 dereferenceable(8) %0) unnamed_addr #5 comdat align 2 {
  %2 = alloca ptr, align 8
  store ptr %0, ptr %2, align 8
  ret void
}

; Function Attrs: mustprogress uwtable
define linkonce_odr dso_local void @_ZN14VNVisitorConst16iterateConstNullEP7AstNode(ptr noundef nonnull align 8 dereferenceable(8) %0, ptr noundef %1) #4 comdat align 2 {
  %3 = alloca ptr, align 8
  %4 = alloca ptr, align 8
  store ptr %0, ptr %3, align 8
  store ptr %1, ptr %4, align 8
  %5 = load ptr, ptr %3, align 8
  %6 = load ptr, ptr %4, align 8
  %7 = icmp ne ptr %6, null
  %8 = xor i1 %7, true
  %9 = xor i1 %8, true
  br i1 %9, label %10, label %15

10:                                               ; preds = %2
  %11 = load ptr, ptr %4, align 8
  %12 = load ptr, ptr %11, align 8
  %13 = getelementptr inbounds ptr, ptr %12, i64 36
  %14 = load ptr, ptr %13, align 8
  call void %14(ptr noundef nonnull align 8 dereferenceable(152) %11, ptr noundef nonnull align 8 dereferenceable(8) %5)
  br label %15

15:                                               ; preds = %10, %2
  ret void
}

; Function Attrs: mustprogress uwtable
define linkonce_odr dso_local void @_ZN12VNUser2InUseC2Ev(ptr noundef nonnull align 1 dereferenceable(1) %0) unnamed_addr #4 comdat align 2 {
  %2 = alloca ptr, align 8
  store ptr %0, ptr %2, align 8
  call void @_ZN15VNUserInUseBase8allocateEiRjRb(i32 noundef 2, ptr noundef nonnull align 4 dereferenceable(4) @_ZN12VNUser2InUse12s_userCntGblE, ptr noundef nonnull align 1 dereferenceable(1) @_ZN12VNUser2InUse10s_userBusyE)
  ret void
}

; Function Attrs: mustprogress nounwind uwtable
define linkonce_odr dso_local void @_ZN14VNVisitorConstC2Ev(ptr noundef nonnull align 8 dereferenceable(8) %0) unnamed_addr #5 comdat align 2 {
  %2 = alloca ptr, align 8
  store ptr %0, ptr %2, align 8
  %3 = load ptr, ptr %2, align 8
  store ptr getelementptr inbounds inrange(-16, 3696) ({ [464 x ptr] }, ptr @_ZTV14VNVisitorConst, i32 0, i32 0, i32 2), ptr %3, align 8
  ret void
}

; Function Attrs: mustprogress nounwind uwtable
define linkonce_odr dso_local void @_ZN17StackCountVisitorD2Ev(ptr noundef nonnull align 8 dereferenceable(32) %0) unnamed_addr #5 comdat align 2 {
  %2 = alloca ptr, align 8
  store ptr %0, ptr %2, align 8
  %3 = load ptr, ptr %2, align 8
  %4 = getelementptr inbounds %class.StackCountVisitor, ptr %3, i32 0, i32 1
  call void @_ZN12VNUser2InUseD2Ev(ptr noundef nonnull align 1 dereferenceable(1) %4) #3
  call void @_ZN14VNVisitorConstD2Ev(ptr noundef nonnull align 8 dereferenceable(8) %3) #3
  ret void
}

; Function Attrs: mustprogress nounwind uwtable
define linkonce_odr dso_local noundef i32 @_ZNK17StackCountVisitor9stackSizeEv(ptr noundef nonnull align 8 dereferenceable(32) %0) #5 comdat align 2 {
  %2 = alloca ptr, align 8
  store ptr %0, ptr %2, align 8
  %3 = load ptr, ptr %2, align 8
  %4 = getelementptr inbounds %class.StackCountVisitor, ptr %3, i32 0, i32 3
  %5 = load i64, ptr %4, align 8
  %6 = trunc i64 %5 to i32
  ret i32 %6
}

; Function Attrs: mustprogress uwtable
define linkonce_odr dso_local void @_ZN17StackCountVisitorC2EP7AstNode(ptr noundef nonnull align 8 dereferenceable(32) %0, ptr noundef %1) unnamed_addr #4 comdat align 2 personality ptr @__gxx_personality_v0 {
  %3 = alloca ptr, align 8
  %4 = alloca ptr, align 8
  %5 = alloca ptr, align 8
  %6 = alloca i32, align 4
  store ptr %0, ptr %3, align 8
  store ptr %1, ptr %4, align 8
  %7 = load ptr, ptr %3, align 8
  call void @_ZN14VNVisitorConstC2Ev(ptr noundef nonnull align 8 dereferenceable(8) %7) #3
  store ptr getelementptr inbounds inrange(-16, 3696) ({ [464 x ptr] }, ptr @_ZTV17StackCountVisitor, i32 0, i32 0, i32 2), ptr %7, align 8
  %8 = getelementptr inbounds %class.StackCountVisitor, ptr %7, i32 0, i32 1
  invoke void @_ZN12VNUser2InUseC2Ev(ptr noundef nonnull align 1 dereferenceable(1) %8)
          to label %9 unwind label %16

9:                                                ; preds = %2
  %10 = getelementptr inbounds %class.StackCountVisitor, ptr %7, i32 0, i32 3
  store i64 0, ptr %10, align 8
  %11 = getelementptr inbounds %class.StackCountVisitor, ptr %7, i32 0, i32 4
  store i8 0, ptr %11, align 8
  %12 = getelementptr inbounds %class.StackCountVisitor, ptr %7, i32 0, i32 5
  store i8 0, ptr %12, align 1
  %13 = getelementptr inbounds %class.StackCountVisitor, ptr %7, i32 0, i32 6
  store i8 0, ptr %13, align 2
  %14 = load ptr, ptr %4, align 8
  invoke void @_ZN14VNVisitorConst16iterateConstNullEP7AstNode(ptr noundef nonnull align 8 dereferenceable(8) %7, ptr noundef %14)
          to label %15 unwind label %20

15:                                               ; preds = %9
  ret void

16:                                               ; preds = %2
  %17 = landingpad { ptr, i32 }
          cleanup
  %18 = extractvalue { ptr, i32 } %17, 0
  store ptr %18, ptr %5, align 8
  %19 = extractvalue { ptr, i32 } %17, 1
  store i32 %19, ptr %6, align 4
  br label %24

20:                                               ; preds = %9
  %21 = landingpad { ptr, i32 }
          cleanup
  %22 = extractvalue { ptr, i32 } %21, 0
  store ptr %22, ptr %5, align 8
  %23 = extractvalue { ptr, i32 } %21, 1
  store i32 %23, ptr %6, align 4
  call void @_ZN12VNUser2InUseD2Ev(ptr noundef nonnull align 1 dereferenceable(1) %8) #3
  br label %24

24:                                               ; preds = %20, %16
  call void @_ZN14VNVisitorConstD2Ev(ptr noundef nonnull align 8 dereferenceable(8) %7) #3
  br label %25

25:                                               ; preds = %24
  %26 = load ptr, ptr %5, align 8
  %27 = load i32, ptr %6, align 4
  %28 = insertvalue { ptr, i32 } poison, ptr %26, 0
  %29 = insertvalue { ptr, i32 } %28, i32 %27, 1
  resume { ptr, i32 } %29
}

; Function Attrs: mustprogress uwtable
define dso_local noundef i64 @_ZN12V3StackCount5countEP7AstNode(ptr noundef %0) #4 align 2 personality ptr @__gxx_personality_v0 {
  %2 = alloca ptr, align 8
  %3 = alloca %class.StackCountVisitor, align 8
  %4 = alloca ptr, align 8
  %5 = alloca i32, align 4
  store ptr %0, ptr %2, align 8
  %6 = load ptr, ptr %2, align 8
  call void @_ZN17StackCountVisitorC2EP7AstNode(ptr noundef nonnull align 8 dereferenceable(32) %3, ptr noundef %6)
  %7 = invoke noundef i32 @_ZNK17StackCountVisitor9stackSizeEv(ptr noundef nonnull align 8 dereferenceable(32) %3)
          to label %8 unwind label %10

8:                                                ; preds = %1
  %9 = zext i32 %7 to i64
  call void @_ZN17StackCountVisitorD2Ev(ptr noundef nonnull align 8 dereferenceable(32) %3) #3
  ret i64 %9

10:                                               ; preds = %1
  %11 = landingpad { ptr, i32 }
          cleanup
  %12 = extractvalue { ptr, i32 } %11, 0
  store ptr %12, ptr %4, align 8
  %13 = extractvalue { ptr, i32 } %11, 1
  store i32 %13, ptr %5, align 4
  call void @_ZN17StackCountVisitorD2Ev(ptr noundef nonnull align 8 dereferenceable(32) %3) #3
  br label %14

14:                                               ; preds = %10
  %15 = load ptr, ptr %4, align 8
  %16 = load i32, ptr %5, align 4
  %17 = insertvalue { ptr, i32 } poison, ptr %15, 0
  %18 = insertvalue { ptr, i32 } %17, i32 %16, 1
  resume { ptr, i32 } %18
}