; Function Attrs: mustprogress uwtable
define dso_local noundef i64 @_ZN12V3StackCount5countEP7AstNode(ptr noundef %0) #3 align 2 personality ptr @__gxx_personality_v0 {
  %2 = alloca %class.StackCountVisitor, align 8
  store ptr getelementptr inbounds inrange(-16, 3696) ({ [464 x ptr] }, ptr @_ZTV17StackCountVisitor, i64 0, i32 0, i64 2), ptr %2, align 8
  tail call void @_ZN15VNUserInUseBase8allocateEiRjRb(i32 noundef 2, ptr noundef nonnull align 4 dereferenceable(4) @_ZN12VNUser2InUse12s_userCntGblE, ptr noundef nonnull align 1 dereferenceable(1) @_ZN12VNUser2InUse10s_userBusyE)
  %3 = getelementptr inbounds i8, ptr %2, i64 16
  %.not.i.i = icmp eq ptr %0, null
  call void @llvm.memset.p0.i64(ptr noundef nonnull align 8 dereferenceable(11) %3, i8 0, i64 11, i1 false)
  br i1 %.not.i.i, label %_ZN17StackCountVisitorC2EP7AstNode.exit, label %4

4:                                                ; preds = %1
  %5 = load ptr, ptr %0, align 8
  %6 = getelementptr inbounds i8, ptr %5, i64 288
  %7 = load ptr, ptr %6, align 8
  invoke void %7(ptr noundef nonnull align 8 dereferenceable(152) %0, ptr noundef nonnull align 8 dereferenceable(8) %2)
          to label %._ZN17StackCountVisitorC2EP7AstNode.exit_crit_edge unwind label %9

._ZN17StackCountVisitorC2EP7AstNode.exit_crit_edge: ; preds = %4
  %.pre = load i64, ptr %3, align 8
  %8 = and i64 %.pre, 4294967295
  br label %_ZN17StackCountVisitorC2EP7AstNode.exit

9:                                                ; preds = %4
  %10 = landingpad { ptr, i32 }
          cleanup
  %11 = getelementptr inbounds i8, ptr %2, i64 8
  call void @_ZN12VNUser2InUseD2Ev(ptr noundef nonnull align 1 dereferenceable(1) %11) #13
  resume { ptr, i32 } %10

_ZN17StackCountVisitorC2EP7AstNode.exit:          ; preds = %._ZN17StackCountVisitorC2EP7AstNode.exit_crit_edge, %1
  %12 = phi i64 [ %8, %._ZN17StackCountVisitorC2EP7AstNode.exit_crit_edge ], [ 0, %1 ]
  invoke void @_ZN15VNUserInUseBase4freeEiRjRb(i32 noundef 2, ptr noundef nonnull align 4 dereferenceable(4) @_ZN12VNUser2InUse12s_userCntGblE, ptr noundef nonnull align 1 dereferenceable(1) @_ZN12VNUser2InUse10s_userBusyE)
          to label %_ZN17StackCountVisitorD2Ev.exit unwind label %13

13:                                               ; preds = %_ZN17StackCountVisitorC2EP7AstNode.exit
  %14 = landingpad { ptr, i32 }
          catch ptr null
  %15 = extractvalue { ptr, i32 } %14, 0
  call void @__clang_call_terminate(ptr %15) #14
  unreachable

_ZN17StackCountVisitorD2Ev.exit:                  ; preds = %_ZN17StackCountVisitorC2EP7AstNode.exit
  ret i64 %12
}